; ModuleID = '5/1076.c'
source_filename = "5/1076.c"
target datalayout = "e-m:e-p270:32:32-p271:32:32-p272:64:64-i64:64-f80:128-n8:16:32:64-S128"
target triple = "x86_64-pc-linux-gnu"

@.str = private unnamed_addr constant [6 x i8] c"%lf%s\00", align 1
@.str.1 = private unnamed_addr constant [3 x i8] c"%s\00", align 1
@.str.2 = private unnamed_addr constant [6 x i8] c"error\00", align 1
@.str.3 = private unnamed_addr constant [4 x i8] c"yes\00", align 1
@.str.4 = private unnamed_addr constant [3 x i8] c"no\00", align 1

; Function Attrs: noinline nounwind uwtable
define dso_local i32 @main() #0 {
  %1 = alloca i32, align 4
  %2 = alloca [2 x [600 x i8]], align 16
  %3 = alloca double, align 8
  %4 = alloca double, align 8
  %5 = alloca i32, align 4
  %6 = alloca i32, align 4
  %7 = alloca double, align 8
  store i32 0, i32* %1, align 4
  %8 = getelementptr inbounds [2 x [600 x i8]], [2 x [600 x i8]]* %2, i64 0, i64 0
  %9 = getelementptr inbounds [600 x i8], [600 x i8]* %8, i64 0, i64 0
  %10 = call i32 (i8*, ...) @__isoc99_scanf(i8* getelementptr inbounds ([6 x i8], [6 x i8]* @.str, i64 0, i64 0), double* %3, i8* %9)
  %11 = getelementptr inbounds [2 x [600 x i8]], [2 x [600 x i8]]* %2, i64 0, i64 1
  %12 = getelementptr inbounds [600 x i8], [600 x i8]* %11, i64 0, i64 0
  %13 = call i32 (i8*, ...) @__isoc99_scanf(i8* getelementptr inbounds ([3 x i8], [3 x i8]* @.str.1, i64 0, i64 0), i8* %12)
  store i32 0, i32* %6, align 4
  %14 = getelementptr inbounds [2 x [600 x i8]], [2 x [600 x i8]]* %2, i64 0, i64 0
  %15 = getelementptr inbounds [600 x i8], [600 x i8]* %14, i64 0, i64 0
  %16 = call i64 @strlen(i8* %15) #3
  %17 = uitofp i64 %16 to double
  store double %17, double* %4, align 8
  store i32 0, i32* %5, align 4
  br label %18

18:                                               ; preds = %108, %0
  %19 = load i32, i32* %5, align 4
  %20 = sitofp i32 %19 to double
  %21 = load double, double* %4, align 8
  %22 = fcmp olt double %20, %21
  br i1 %22, label %23, label %111

23:                                               ; preds = %18
  %24 = getelementptr inbounds [2 x [600 x i8]], [2 x [600 x i8]]* %2, i64 0, i64 0
  %25 = load i32, i32* %5, align 4
  %26 = sext i32 %25 to i64
  %27 = getelementptr inbounds [600 x i8], [600 x i8]* %24, i64 0, i64 %26
  %28 = load i8, i8* %27, align 1
  %29 = sext i8 %28 to i32
  %30 = icmp ne i32 %29, 65
  br i1 %30, label %31, label %55

31:                                               ; preds = %23
  %32 = getelementptr inbounds [2 x [600 x i8]], [2 x [600 x i8]]* %2, i64 0, i64 0
  %33 = load i32, i32* %5, align 4
  %34 = sext i32 %33 to i64
  %35 = getelementptr inbounds [600 x i8], [600 x i8]* %32, i64 0, i64 %34
  %36 = load i8, i8* %35, align 1
  %37 = sext i8 %36 to i32
  %38 = icmp ne i32 %37, 67
  br i1 %38, label %39, label %55

39:                                               ; preds = %31
  %40 = getelementptr inbounds [2 x [600 x i8]], [2 x [600 x i8]]* %2, i64 0, i64 0
  %41 = load i32, i32* %5, align 4
  %42 = sext i32 %41 to i64
  %43 = getelementptr inbounds [600 x i8], [600 x i8]* %40, i64 0, i64 %42
  %44 = load i8, i8* %43, align 1
  %45 = sext i8 %44 to i32
  %46 = icmp ne i32 %45, 71
  br i1 %46, label %47, label %55

47:                                               ; preds = %39
  %48 = getelementptr inbounds [2 x [600 x i8]], [2 x [600 x i8]]* %2, i64 0, i64 0
  %49 = load i32, i32* %5, align 4
  %50 = sext i32 %49 to i64
  %51 = getelementptr inbounds [600 x i8], [600 x i8]* %48, i64 0, i64 %50
  %52 = load i8, i8* %51, align 1
  %53 = sext i8 %52 to i32
  %54 = icmp ne i32 %53, 84
  br i1 %54, label %87, label %55

55:                                               ; preds = %47, %39, %31, %23
  %56 = getelementptr inbounds [2 x [600 x i8]], [2 x [600 x i8]]* %2, i64 0, i64 1
  %57 = load i32, i32* %5, align 4
  %58 = sext i32 %57 to i64
  %59 = getelementptr inbounds [600 x i8], [600 x i8]* %56, i64 0, i64 %58
  %60 = load i8, i8* %59, align 1
  %61 = sext i8 %60 to i32
  %62 = icmp ne i32 %61, 65
  br i1 %62, label %63, label %89

63:                                               ; preds = %55
  %64 = getelementptr inbounds [2 x [600 x i8]], [2 x [600 x i8]]* %2, i64 0, i64 1
  %65 = load i32, i32* %5, align 4
  %66 = sext i32 %65 to i64
  %67 = getelementptr inbounds [600 x i8], [600 x i8]* %64, i64 0, i64 %66
  %68 = load i8, i8* %67, align 1
  %69 = sext i8 %68 to i32
  %70 = icmp ne i32 %69, 67
  br i1 %70, label %71, label %89

71:                                               ; preds = %63
  %72 = getelementptr inbounds [2 x [600 x i8]], [2 x [600 x i8]]* %2, i64 0, i64 1
  %73 = load i32, i32* %5, align 4
  %74 = sext i32 %73 to i64
  %75 = getelementptr inbounds [600 x i8], [600 x i8]* %72, i64 0, i64 %74
  %76 = load i8, i8* %75, align 1
  %77 = sext i8 %76 to i32
  %78 = icmp ne i32 %77, 71
  br i1 %78, label %79, label %89

79:                                               ; preds = %71
  %80 = getelementptr inbounds [2 x [600 x i8]], [2 x [600 x i8]]* %2, i64 0, i64 1
  %81 = load i32, i32* %5, align 4
  %82 = sext i32 %81 to i64
  %83 = getelementptr inbounds [600 x i8], [600 x i8]* %80, i64 0, i64 %82
  %84 = load i8, i8* %83, align 1
  %85 = sext i8 %84 to i32
  %86 = icmp ne i32 %85, 84
  br i1 %86, label %87, label %89

87:                                               ; preds = %79, %47
  %88 = call i32 (i8*, ...) @printf(i8* getelementptr inbounds ([6 x i8], [6 x i8]* @.str.2, i64 0, i64 0))
  store i32 -1, i32* %6, align 4
  br label %111

89:                                               ; preds = %79, %71, %63, %55
  %90 = getelementptr inbounds [2 x [600 x i8]], [2 x [600 x i8]]* %2, i64 0, i64 0
  %91 = load i32, i32* %5, align 4
  %92 = sext i32 %91 to i64
  %93 = getelementptr inbounds [600 x i8], [600 x i8]* %90, i64 0, i64 %92
  %94 = load i8, i8* %93, align 1
  %95 = sext i8 %94 to i32
  %96 = getelementptr inbounds [2 x [600 x i8]], [2 x [600 x i8]]* %2, i64 0, i64 1
  %97 = load i32, i32* %5, align 4
  %98 = sext i32 %97 to i64
  %99 = getelementptr inbounds [600 x i8], [600 x i8]* %96, i64 0, i64 %98
  %100 = load i8, i8* %99, align 1
  %101 = sext i8 %100 to i32
  %102 = icmp eq i32 %95, %101
  br i1 %102, label %103, label %106

103:                                              ; preds = %89
  %104 = load i32, i32* %6, align 4
  %105 = add nsw i32 %104, 1
  store i32 %105, i32* %6, align 4
  br label %106

106:                                              ; preds = %103, %89
  br label %107

107:                                              ; preds = %106
  br label %108

108:                                              ; preds = %107
  %109 = load i32, i32* %5, align 4
  %110 = add nsw i32 %109, 1
  store i32 %110, i32* %5, align 4
  br label %18

111:                                              ; preds = %87, %18
  %112 = load i32, i32* %6, align 4
  %113 = icmp ne i32 %112, -1
  br i1 %113, label %114, label %128

114:                                              ; preds = %111
  %115 = load i32, i32* %6, align 4
  %116 = sitofp i32 %115 to double
  %117 = fmul double %116, 1.000000e+00
  %118 = load double, double* %4, align 8
  %119 = fdiv double %117, %118
  store double %119, double* %7, align 8
  %120 = load double, double* %7, align 8
  %121 = load double, double* %3, align 8
  %122 = fcmp oge double %120, %121
  br i1 %122, label %123, label %125

123:                                              ; preds = %114
  %124 = call i32 (i8*, ...) @printf(i8* getelementptr inbounds ([4 x i8], [4 x i8]* @.str.3, i64 0, i64 0))
  br label %127

125:                                              ; preds = %114
  %126 = call i32 (i8*, ...) @printf(i8* getelementptr inbounds ([3 x i8], [3 x i8]* @.str.4, i64 0, i64 0))
  br label %127

127:                                              ; preds = %125, %123
  br label %128

128:                                              ; preds = %127, %111
  ret i32 0
}

declare dso_local i32 @__isoc99_scanf(i8*, ...) #1

; Function Attrs: nounwind readonly
declare dso_local i64 @strlen(i8*) #2

declare dso_local i32 @printf(i8*, ...) #1


!llvm.module.flags = !{!0}
!llvm.ident = !{!1}

!0 = !{i32 1, !"wchar_size", i32 4}
!1 = !{!"clang version 10.0.0-4ubuntu1 "}
